; Function Attrs: null_pointer_is_valid sspstrong uwtable
define internal range(i32 -268435456, 268435456) i32 @dissect_NGAP_Message_PDU(ptr noundef %0, ptr noundef %1, ptr noundef %2, ptr readnone captures(none) %3) #0 {
  %5 = alloca ptr, align 8
  %6 = alloca %struct._asn1_ctx_t, align 8
  call void @llvm.lifetime.start.p0(i64 208, ptr nonnull %6) #12
  call void @asn1_ctx_init(ptr noundef nonnull %6, i32 noundef 1, i1 noundef zeroext true, ptr noundef %1)
  %7 = load i32, ptr @hf_ngap_NGAP_Message_PDU, align 4
  call void @llvm.lifetime.start.p0(i64 8, ptr nonnull %5) #12
  %8 = call i32 @dissect_per_octet_string(ptr noundef %0, i32 noundef 0, ptr noundef nonnull %6, ptr noundef %2, i32 noundef %7, i32 noundef -1, i32 noundef -1, i1 noundef zeroext false, ptr noundef nonnull %5)
  %9 = load ptr, ptr %5, align 8
  %.not.i = icmp eq ptr %9, null
  br i1 %.not.i, label %dissect_ngap_NGAP_Message.exit, label %10

10:                                               ; preds = %4
  %11 = getelementptr inbounds nuw i8, ptr %6, i64 24
  %12 = load ptr, ptr %11, align 8
  %13 = load i32, ptr @ett_ngap_NGAP_Message, align 4
  %14 = call ptr @proto_item_add_subtree(ptr noundef %12, i32 noundef %13)
  %15 = load ptr, ptr @ngap_handle, align 8
  %16 = load ptr, ptr %5, align 8
  %17 = getelementptr inbounds nuw i8, ptr %6, i64 16
  %18 = load ptr, ptr %17, align 8
  %19 = call i32 @call_dissector(ptr noundef %15, ptr noundef %16, ptr noundef %18, ptr noundef %14)
  br label %dissect_ngap_NGAP_Message.exit

dissect_ngap_NGAP_Message.exit:                   ; preds = %4, %10
  call void @llvm.lifetime.end.p0(i64 8, ptr nonnull %5) #12
  %20 = add i32 %8, 7
  %21 = ashr i32 %20, 3
  call void @llvm.lifetime.end.p0(i64 208, ptr nonnull %6) #12
  ret i32 %21
}